; Function Attrs: nounwind uwtable
define void @Pdr_QueuePrint(ptr noundef readonly captures(none) %0) local_unnamed_addr #9 {
  %2 = getelementptr inbounds nuw i8, ptr %0, i64 120
  %.05 = load ptr, ptr %2, align 8
  %.not6 = icmp eq ptr %.05, null
  br i1 %.not6, label %._crit_edge, label %.lr.ph

.lr.ph:                                           ; preds = %1, %.lr.ph
  %.07 = phi ptr [ %.0, %.lr.ph ], [ %.05, %1 ]
  %3 = load i32, ptr %.07, align 8
  %4 = getelementptr inbounds nuw i8, ptr %.07, i64 4
  %5 = load i32, ptr %4, align 4
  tail call void (i32, ptr, ...) @Abc_Print(i32 poison, ptr nonnull poison, i32 noundef %3, i32 noundef %5)
  %6 = getelementptr inbounds nuw i8, ptr %.07, i64 32
  %.0 = load ptr, ptr %6, align 8
  %.not = icmp eq ptr %.0, null
  br i1 %.not, label %._crit_edge, label %.lr.ph, !llvm.loop !24

._crit_edge:                                      ; preds = %.lr.ph, %1
  ret void
}